target datalayout = "e-m:e-p270:32:32-p271:32:32-p272:64:64-i64:64-i128:128-f80:128-n8:16:32:64-S128"
target triple = "x86_64-pc-linux-gnu"

%struct.FunctionCallInfoBaseData = type { ptr, ptr, ptr, i32, i8, i16, [0 x %struct.NullableDatum] }
%struct.NullableDatum = type { i64, i8 }
%struct.FmgrInfo = type { ptr, i32, i16, i8, i8, i8, ptr, ptr, ptr }
%struct.TypeCacheEntry = type { i32, i32, i16, i8, i8, i8, i8, i32, i32, i32, i32, i32, i32, i32, i32, i32, i32, i32, i32, i32, i32, %struct.FmgrInfo, %struct.FmgrInfo, %struct.FmgrInfo, %struct.FmgrInfo, ptr, i64, ptr, i32, i32, %struct.FmgrInfo, %struct.FmgrInfo, %struct.FmgrInfo, ptr, i32, i32, ptr, i32, ptr, ptr }
%union.anon = type { %struct.FunctionCallInfoBaseData, [16 x i8] }
%struct.Node = type { i32 }
%struct.ErrorSaveContext = type { i32, i8, i8, ptr }
%struct.anon = type { i32, [0 x i8] }

@.str.1 = private unnamed_addr constant [13 x i8] c"rangetypes.c\00", align 1
@.str.14 = private unnamed_addr constant [26 x i8] c"function %u returned NULL\00", align 1
@__func__.make_range = private unnamed_addr constant [11 x i8] c"make_range\00", align 1

; Function Attrs: inlinehint nounwind uwtable
define internal ptr @DatumGetPointer(i64 noundef %0) #2 {
  %2 = alloca i64, align 8
  store i64 %0, ptr %2, align 8
  %3 = load i64, ptr %2, align 8
  %4 = inttoptr i64 %3 to ptr
  ret ptr %4
}

; Function Attrs: inlinehint nounwind uwtable
define internal i64 @PointerGetDatum(ptr noundef %0) #2 {
  %2 = alloca ptr, align 8
  store ptr %0, ptr %2, align 8
  %3 = load ptr, ptr %2, align 8
  %4 = ptrtoint ptr %3 to i64
  ret i64 %4
}

; Function Attrs: inlinehint nounwind uwtable
define internal ptr @DatumGetRangeTypeP(i64 noundef %0) #2 {
  %2 = alloca i64, align 8
  store i64 %0, ptr %2, align 8
  %3 = load i64, ptr %2, align 8
  %4 = call ptr @DatumGetPointer(i64 noundef %3)
  %5 = call ptr @pg_detoast_datum(ptr noundef %4)
  ret ptr %5
}

; Function Attrs: inlinehint nounwind uwtable
define internal i64 @RangeTypePGetDatum(ptr noundef %0) #2 {
  %2 = alloca ptr, align 8
  store ptr %0, ptr %2, align 8
  %3 = load ptr, ptr %2, align 8
  %4 = call i64 @PointerGetDatum(ptr noundef %3)
  ret i64 %4
}

; Function Attrs: nounwind uwtable
define dso_local signext i8 @range_get_flags(ptr noundef %0) #0 {
  %2 = alloca ptr, align 8
  store ptr %0, ptr %2, align 8
  %3 = load ptr, ptr %2, align 8
  %4 = load ptr, ptr %2, align 8
  %5 = getelementptr inbounds nuw %struct.anon, ptr %4, i32 0, i32 0
  %6 = load i32, ptr %5, align 4
  %7 = lshr i32 %6, 2
  %8 = and i32 %7, 1073741823
  %9 = zext i32 %8 to i64
  %10 = getelementptr inbounds nuw i8, ptr %3, i64 %9
  %11 = getelementptr inbounds i8, ptr %10, i64 -1
  %12 = load i8, ptr %11, align 1
  ret i8 %12
}

; Function Attrs: nounwind uwtable
define dso_local ptr @make_range(ptr noundef %0, ptr noundef %1, ptr noundef %2, i1 noundef zeroext %3, ptr noundef %4) #0 {
  %6 = alloca ptr, align 8
  %7 = alloca ptr, align 8
  %8 = alloca ptr, align 8
  %9 = alloca ptr, align 8
  %10 = alloca i8, align 1
  %11 = alloca ptr, align 8
  %12 = alloca ptr, align 8
  %13 = alloca i32, align 4
  %14 = alloca %union.anon, align 8
  %15 = alloca ptr, align 8
  %16 = alloca i64, align 8
  store ptr %0, ptr %7, align 8
  store ptr %1, ptr %8, align 8
  store ptr %2, ptr %9, align 8
  %17 = zext i1 %3 to i8
  store i8 %17, ptr %10, align 1
  store ptr %4, ptr %11, align 8
  call void @llvm.lifetime.start.p0(i64 8, ptr %12) #10
  %18 = load ptr, ptr %7, align 8
  %19 = load ptr, ptr %8, align 8
  %20 = load ptr, ptr %9, align 8
  %21 = load i8, ptr %10, align 1, !range !7, !noundef !8
  %22 = trunc i8 %21 to i1
  %23 = load ptr, ptr %11, align 8
  %24 = call ptr @range_serialize(ptr noundef %18, ptr noundef %19, ptr noundef %20, i1 noundef zeroext %22, ptr noundef %23)
  store ptr %24, ptr %12, align 8
  %25 = load ptr, ptr %11, align 8
  %26 = icmp ne ptr %25, null
  br i1 %26, label %27, label %38

27:                                               ; preds = %5
  %28 = load ptr, ptr %11, align 8
  %29 = getelementptr inbounds nuw %struct.Node, ptr %28, i32 0, i32 0
  %30 = load i32, ptr %29, align 4
  %31 = icmp eq i32 %30, 446
  br i1 %31, label %32, label %38

32:                                               ; preds = %27
  %33 = load ptr, ptr %11, align 8
  %34 = getelementptr inbounds nuw %struct.ErrorSaveContext, ptr %33, i32 0, i32 1
  %35 = load i8, ptr %34, align 4, !range !7, !noundef !8
  %36 = trunc i8 %35 to i1
  br i1 %36, label %37, label %38

37:                                               ; preds = %32
  store ptr null, ptr %6, align 8
  store i32 1, ptr %13, align 4
  br label %127

38:                                               ; preds = %32, %27, %5
  %39 = load ptr, ptr %7, align 8
  %40 = getelementptr inbounds nuw %struct.TypeCacheEntry, ptr %39, i32 0, i32 31
  %41 = getelementptr inbounds nuw %struct.FmgrInfo, ptr %40, i32 0, i32 1
  %42 = load i32, ptr %41, align 8
  %43 = icmp ne i32 %42, 0
  br i1 %43, label %44, label %125

44:                                               ; preds = %38
  %45 = load ptr, ptr %12, align 8
  %46 = call signext i8 @range_get_flags(ptr noundef %45)
  %47 = sext i8 %46 to i32
  %48 = and i32 %47, 1
  %49 = icmp ne i32 %48, 0
  br i1 %49, label %125, label %50

50:                                               ; preds = %44
  call void @llvm.lifetime.start.p0(i64 48, ptr %14) #10
  call void @llvm.lifetime.start.p0(i64 8, ptr %15) #10
  store ptr %14, ptr %15, align 8
  call void @llvm.lifetime.start.p0(i64 8, ptr %16) #10
  br label %51

51:                                               ; preds = %50
  %52 = load ptr, ptr %7, align 8
  %53 = getelementptr inbounds nuw %struct.TypeCacheEntry, ptr %52, i32 0, i32 31
  %54 = load ptr, ptr %15, align 8
  %55 = getelementptr inbounds nuw %struct.FunctionCallInfoBaseData, ptr %54, i32 0, i32 0
  store ptr %53, ptr %55, align 8
  %56 = load ptr, ptr %11, align 8
  %57 = load ptr, ptr %15, align 8
  %58 = getelementptr inbounds nuw %struct.FunctionCallInfoBaseData, ptr %57, i32 0, i32 1
  store ptr %56, ptr %58, align 8
  %59 = load ptr, ptr %15, align 8
  %60 = getelementptr inbounds nuw %struct.FunctionCallInfoBaseData, ptr %59, i32 0, i32 2
  store ptr null, ptr %60, align 8
  %61 = load ptr, ptr %15, align 8
  %62 = getelementptr inbounds nuw %struct.FunctionCallInfoBaseData, ptr %61, i32 0, i32 3
  store i32 0, ptr %62, align 8
  %63 = load ptr, ptr %15, align 8
  %64 = getelementptr inbounds nuw %struct.FunctionCallInfoBaseData, ptr %63, i32 0, i32 4
  store i8 0, ptr %64, align 4
  %65 = load ptr, ptr %15, align 8
  %66 = getelementptr inbounds nuw %struct.FunctionCallInfoBaseData, ptr %65, i32 0, i32 5
  store i16 1, ptr %66, align 2
  br label %67

67:                                               ; preds = %51
  br label %68

68:                                               ; preds = %67
  %69 = load ptr, ptr %12, align 8
  %70 = call i64 @RangeTypePGetDatum(ptr noundef %69)
  %71 = load ptr, ptr %15, align 8
  %72 = getelementptr inbounds nuw %struct.FunctionCallInfoBaseData, ptr %71, i32 0, i32 6
  %73 = getelementptr inbounds [0 x %struct.NullableDatum], ptr %72, i64 0, i64 0
  %74 = getelementptr inbounds nuw %struct.NullableDatum, ptr %73, i32 0, i32 0
  store i64 %70, ptr %74, align 8
  %75 = load ptr, ptr %15, align 8
  %76 = getelementptr inbounds nuw %struct.FunctionCallInfoBaseData, ptr %75, i32 0, i32 6
  %77 = getelementptr inbounds [0 x %struct.NullableDatum], ptr %76, i64 0, i64 0
  %78 = getelementptr inbounds nuw %struct.NullableDatum, ptr %77, i32 0, i32 1
  store i8 0, ptr %78, align 8
  %79 = load ptr, ptr %15, align 8
  %80 = getelementptr inbounds nuw %struct.FunctionCallInfoBaseData, ptr %79, i32 0, i32 0
  %81 = load ptr, ptr %80, align 8
  %82 = getelementptr inbounds nuw %struct.FmgrInfo, ptr %81, i32 0, i32 0
  %83 = load ptr, ptr %82, align 8
  %84 = load ptr, ptr %15, align 8
  %85 = call i64 %83(ptr noundef %84)
  store i64 %85, ptr %16, align 8
  %86 = load ptr, ptr %11, align 8
  %87 = icmp ne ptr %86, null
  br i1 %87, label %88, label %99

88:                                               ; preds = %68
  %89 = load ptr, ptr %11, align 8
  %90 = getelementptr inbounds nuw %struct.Node, ptr %89, i32 0, i32 0
  %91 = load i32, ptr %90, align 4
  %92 = icmp eq i32 %91, 446
  br i1 %92, label %93, label %99

93:                                               ; preds = %88
  %94 = load ptr, ptr %11, align 8
  %95 = getelementptr inbounds nuw %struct.ErrorSaveContext, ptr %94, i32 0, i32 1
  %96 = load i8, ptr %95, align 4, !range !7, !noundef !8
  %97 = trunc i8 %96 to i1
  br i1 %97, label %98, label %99

98:                                               ; preds = %93
  store ptr null, ptr %6, align 8
  store i32 1, ptr %13, align 4
  br label %122

99:                                               ; preds = %93, %88, %68
  %100 = load ptr, ptr %15, align 8
  %101 = getelementptr inbounds nuw %struct.FunctionCallInfoBaseData, ptr %100, i32 0, i32 4
  %102 = load i8, ptr %101, align 4, !range !7, !noundef !8
  %103 = trunc i8 %102 to i1
  br i1 %103, label %104, label %119

104:                                              ; preds = %99
  br label %105

105:                                              ; preds = %104
  br i1 true, label %106, label %108

106:                                              ; preds = %105
  %107 = call zeroext i1 @errstart_cold(i32 noundef 21, ptr noundef null) #11
  br i1 %107, label %110, label %116

108:                                              ; preds = %105
  %109 = call zeroext i1 @errstart(i32 noundef 21, ptr noundef null)
  br i1 %109, label %110, label %116

110:                                              ; preds = %108, %106
  %111 = load ptr, ptr %7, align 8
  %112 = getelementptr inbounds nuw %struct.TypeCacheEntry, ptr %111, i32 0, i32 31
  %113 = getelementptr inbounds nuw %struct.FmgrInfo, ptr %112, i32 0, i32 1
  %114 = load i32, ptr %113, align 8
  %115 = call i32 (ptr, ...) @errmsg_internal(ptr noundef @.str.14, i32 noundef %114)
  call void @errfinish(ptr noundef @.str.1, i32 noundef 1984, ptr noundef @__func__.make_range)
  br label %116

116:                                              ; preds = %110, %108, %106
  unreachable

117:                                              ; No predecessors!
  br label %118

118:                                              ; preds = %117
  br label %119

119:                                              ; preds = %118, %99
  %120 = load i64, ptr %16, align 8
  %121 = call ptr @DatumGetRangeTypeP(i64 noundef %120)
  store ptr %121, ptr %12, align 8
  store i32 0, ptr %13, align 4
  br label %122

122:                                              ; preds = %119, %98
  call void @llvm.lifetime.end.p0(i64 8, ptr %16) #10
  call void @llvm.lifetime.end.p0(i64 8, ptr %15) #10
  call void @llvm.lifetime.end.p0(i64 48, ptr %14) #10
  %123 = load i32, ptr %13, align 4
  switch i32 %123, label %127 [
    i32 0, label %124
  ]

124:                                              ; preds = %122
  br label %125

125:                                              ; preds = %124, %44, %38
  %126 = load ptr, ptr %12, align 8
  store ptr %126, ptr %6, align 8
  store i32 1, ptr %13, align 4
  br label %127

127:                                              ; preds = %125, %122, %37
  call void @llvm.lifetime.end.p0(i64 8, ptr %12) #10
  %128 = load ptr, ptr %6, align 8
  ret ptr %128
}