; Function Attrs: nounwind uwtable
define dso_local ptr @make_range(ptr noundef %0, ptr noundef captures(none) %1, ptr noundef captures(none) %2, i1 noundef zeroext %3, ptr noundef %4) local_unnamed_addr #0 {
  %6 = alloca %union.anon, align 8
  %7 = tail call ptr @range_serialize(ptr noundef %0, ptr noundef %1, ptr noundef %2, i1 noundef zeroext %3, ptr noundef %4)
  %.not = icmp eq ptr %4, null
  br i1 %.not, label %15, label %8

8:                                                ; preds = %5
  %9 = load i32, ptr %4, align 4
  %10 = icmp eq i32 %9, 446
  br i1 %10, label %11, label %15

11:                                               ; preds = %8
  %12 = getelementptr inbounds nuw i8, ptr %4, i64 4
  %13 = load i8, ptr %12, align 4, !range !7, !noundef !8
  %14 = trunc nuw i8 %13 to i1
  br i1 %14, label %55, label %15

15:                                               ; preds = %11, %8, %5
  %16 = getelementptr inbounds nuw i8, ptr %0, i64 344
  %17 = getelementptr inbounds nuw i8, ptr %0, i64 352
  %18 = load i32, ptr %17, align 8
  %.not35 = icmp eq i32 %18, 0
  br i1 %.not35, label %55, label %19

19:                                               ; preds = %15
  %20 = load i32, ptr %7, align 4
  %21 = lshr i32 %20, 2
  %22 = zext nneg i32 %21 to i64
  %23 = getelementptr inbounds nuw i8, ptr %7, i64 %22
  %24 = getelementptr inbounds i8, ptr %23, i64 -1
  %25 = load i8, ptr %24, align 1
  %26 = and i8 %25, 1
  %.not36 = icmp eq i8 %26, 0
  br i1 %.not36, label %27, label %55

27:                                               ; preds = %19
  call void @llvm.lifetime.start.p0(i64 48, ptr nonnull %6) #14
  store ptr %16, ptr %6, align 8
  %28 = getelementptr inbounds nuw i8, ptr %6, i64 8
  store ptr %4, ptr %28, align 8
  %29 = getelementptr inbounds nuw i8, ptr %6, i64 16
  store ptr null, ptr %29, align 8
  %30 = getelementptr inbounds nuw i8, ptr %6, i64 24
  store i32 0, ptr %30, align 8
  %31 = getelementptr inbounds nuw i8, ptr %6, i64 28
  store i8 0, ptr %31, align 4
  %32 = getelementptr inbounds nuw i8, ptr %6, i64 30
  store i16 1, ptr %32, align 2
  %33 = ptrtoint ptr %7 to i64
  %34 = getelementptr inbounds nuw i8, ptr %6, i64 32
  store i64 %33, ptr %34, align 8
  %35 = getelementptr inbounds nuw i8, ptr %6, i64 40
  store i8 0, ptr %35, align 8
  %36 = load ptr, ptr %16, align 8
  %37 = call i64 %36(ptr noundef nonnull %6) #14
  br i1 %.not, label %45, label %38

38:                                               ; preds = %27
  %39 = load i32, ptr %4, align 4
  %40 = icmp eq i32 %39, 446
  br i1 %40, label %41, label %45

41:                                               ; preds = %38
  %42 = getelementptr inbounds nuw i8, ptr %4, i64 4
  %43 = load i8, ptr %42, align 4, !range !7, !noundef !8
  %44 = trunc nuw i8 %43 to i1
  br i1 %44, label %.sink.split, label %45

45:                                               ; preds = %41, %38, %27
  %46 = load i8, ptr %31, align 4, !range !7, !noundef !8
  %47 = trunc nuw i8 %46 to i1
  br i1 %47, label %48, label %52

48:                                               ; preds = %45
  %49 = call zeroext i1 @errstart_cold(i32 noundef 21, ptr noundef null) #16
  call void @llvm.assume(i1 %49)
  %50 = load i32, ptr %17, align 8
  %51 = call i32 (ptr, ...) @errmsg_internal(ptr noundef nonnull @.str.14, i32 noundef %50) #14
  call void @errfinish(ptr noundef nonnull @.str.1, i32 noundef 1984, ptr noundef nonnull @__func__.make_range) #14
  unreachable

52:                                               ; preds = %45
  %53 = inttoptr i64 %37 to ptr
  %54 = call ptr @pg_detoast_datum(ptr noundef %53) #14
  br label %.sink.split

.sink.split:                                      ; preds = %41, %52
  %.0.ph = phi ptr [ %54, %52 ], [ null, %41 ]
  call void @llvm.lifetime.end.p0(i64 48, ptr nonnull %6) #14
  br label %55

55:                                               ; preds = %.sink.split, %15, %19, %11
  %.0 = phi ptr [ null, %11 ], [ %7, %19 ], [ %7, %15 ], [ %.0.ph, %.sink.split ]
  ret ptr %.0
}